; Function Attrs: mustprogress uwtable
define void @_ZN2cv5utils7logging8internal17writeLogMessageExENS1_8LogLevelEPKcS5_iS5_S5_(i32 noundef %0, ptr noundef %1, ptr noundef %2, i32 noundef %3, ptr noundef %4, ptr noundef %5) local_unnamed_addr #3 personality ptr @__gxx_personality_v0 {
  %7 = alloca %"class.std::__cxx11::basic_ostringstream", align 8
  %8 = alloca %"class.std::__cxx11::basic_string", align 8
  call void @_ZNSt7__cxx1119basic_ostringstreamIcSt11char_traitsIcESaIcEEC1Ev(ptr noundef nonnull align 8 dereferenceable(112) %7)
  %.not = icmp eq ptr %1, null
  br i1 %.not, label %15, label %9

9:                                                ; preds = %6
  %10 = invoke noundef nonnull align 8 dereferenceable(8) ptr @_ZStlsISt11char_traitsIcEERSt13basic_ostreamIcT_ES5_PKc(ptr noundef nonnull align 8 dereferenceable(8) %7, ptr noundef nonnull %1)
          to label %11 unwind label %13

11:                                               ; preds = %9
  %12 = invoke noundef nonnull align 8 dereferenceable(8) ptr @_ZStlsISt11char_traitsIcEERSt13basic_ostreamIcT_ES5_c(ptr noundef nonnull align 8 dereferenceable(8) %10, i8 noundef signext 32)
          to label %15 unwind label %13

13:                                               ; preds = %41, %39, %37, %35, %32, %30, %28, %.loopexit, %11, %9
  %14 = landingpad { ptr, i32 }
          cleanup
  br label %47

15:                                               ; preds = %11, %6
  %.not16 = icmp eq ptr %2, null
  br i1 %.not16, label %34, label %16

16:                                               ; preds = %15
  %17 = load i8, ptr %2, align 1
  %.not22.i = icmp eq i8 %17, 0
  br i1 %.not22.i, label %.loopexit, label %.lr.ph.i

.lr.ph.i:                                         ; preds = %16, %21
  %18 = phi i8 [ %22, %21 ], [ %17, %16 ]
  %.024.i = phi ptr [ %.1.i, %21 ], [ null, %16 ]
  %.01623.i = phi ptr [ %19, %21 ], [ %2, %16 ]
  %19 = getelementptr inbounds i8, ptr %.01623.i, i64 1
  switch i8 %18, label %21 [
    i8 92, label %20
    i8 47, label %20
  ]

20:                                               ; preds = %.lr.ph.i, %.lr.ph.i
  br label %21

21:                                               ; preds = %20, %.lr.ph.i
  %.1.i = phi ptr [ %19, %20 ], [ %.024.i, %.lr.ph.i ]
  %22 = load i8, ptr %19, align 1
  %.not.i = icmp eq i8 %22, 0
  br i1 %.not.i, label %.loopexit, label %.lr.ph.i, !llvm.loop !5

.loopexit:                                        ; preds = %21, %16
  %.016.lcssa.i = phi ptr [ %2, %16 ], [ %19, %21 ]
  %.0.lcssa.i = phi ptr [ null, %16 ], [ %.1.i, %21 ]
  %23 = icmp eq ptr %.0.lcssa.i, null
  %24 = icmp eq ptr %.0.lcssa.i, %.016.lcssa.i
  %or.cond.i = or i1 %23, %24
  %.019.i = select i1 %or.cond.i, ptr %2, ptr %.0.lcssa.i
  %25 = invoke noundef nonnull align 8 dereferenceable(8) ptr @_ZStlsISt11char_traitsIcEERSt13basic_ostreamIcT_ES5_PKc(ptr noundef nonnull align 8 dereferenceable(8) %7, ptr noundef %.019.i)
          to label %26 unwind label %13

26:                                               ; preds = %.loopexit
  %27 = icmp sgt i32 %3, 0
  br i1 %27, label %28, label %32

28:                                               ; preds = %26
  %29 = invoke noundef nonnull align 8 dereferenceable(8) ptr @_ZStlsISt11char_traitsIcEERSt13basic_ostreamIcT_ES5_c(ptr noundef nonnull align 8 dereferenceable(8) %7, i8 noundef signext 58)
          to label %30 unwind label %13

30:                                               ; preds = %28
  %31 = invoke noundef nonnull align 8 dereferenceable(8) ptr @_ZNSolsEi(ptr noundef nonnull align 8 dereferenceable(8) %29, i32 noundef %3)
          to label %32 unwind label %13

32:                                               ; preds = %30, %26
  %33 = invoke noundef nonnull align 8 dereferenceable(8) ptr @_ZStlsISt11char_traitsIcEERSt13basic_ostreamIcT_ES5_c(ptr noundef nonnull align 8 dereferenceable(8) %7, i8 noundef signext 32)
          to label %34 unwind label %13

34:                                               ; preds = %32, %15
  %.not17 = icmp eq ptr %4, null
  br i1 %.not17, label %39, label %35

35:                                               ; preds = %34
  %36 = invoke noundef nonnull align 8 dereferenceable(8) ptr @_ZStlsISt11char_traitsIcEERSt13basic_ostreamIcT_ES5_PKc(ptr noundef nonnull align 8 dereferenceable(8) %7, ptr noundef nonnull %4)
          to label %37 unwind label %13

37:                                               ; preds = %35
  %38 = invoke noundef nonnull align 8 dereferenceable(8) ptr @_ZStlsISt11char_traitsIcEERSt13basic_ostreamIcT_ES5_c(ptr noundef nonnull align 8 dereferenceable(8) %36, i8 noundef signext 32)
          to label %39 unwind label %13

39:                                               ; preds = %37, %34
  %40 = invoke noundef nonnull align 8 dereferenceable(8) ptr @_ZStlsISt11char_traitsIcEERSt13basic_ostreamIcT_ES5_PKc(ptr noundef nonnull align 8 dereferenceable(8) %7, ptr noundef %5)
          to label %41 unwind label %13

41:                                               ; preds = %39
  invoke void @_ZNKSt7__cxx1119basic_ostringstreamIcSt11char_traitsIcESaIcEE3strEv(ptr dead_on_unwind nonnull writable sret(%"class.std::__cxx11::basic_string") align 8 %8, ptr noundef nonnull align 8 dereferenceable(112) %7)
          to label %42 unwind label %13

42:                                               ; preds = %41
  %43 = call noundef ptr @_ZNKSt7__cxx1112basic_stringIcSt11char_traitsIcESaIcEE5c_strEv(ptr noundef nonnull align 8 dereferenceable(32) %8) #8
  invoke void @_ZN2cv5utils7logging8internal15writeLogMessageENS1_8LogLevelEPKc(i32 noundef %0, ptr noundef %43)
          to label %44 unwind label %45

44:                                               ; preds = %42
  call void @_ZNSt7__cxx1112basic_stringIcSt11char_traitsIcESaIcEED1Ev(ptr noundef nonnull align 8 dereferenceable(32) %8) #8
  call void @_ZNSt7__cxx1119basic_ostringstreamIcSt11char_traitsIcESaIcEED1Ev(ptr noundef nonnull align 8 dereferenceable(112) %7) #8
  ret void

45:                                               ; preds = %42
  %46 = landingpad { ptr, i32 }
          cleanup
  call void @_ZNSt7__cxx1112basic_stringIcSt11char_traitsIcESaIcEED1Ev(ptr noundef nonnull align 8 dereferenceable(32) %8) #8
  br label %47

47:                                               ; preds = %45, %13
  %.pn = phi { ptr, i32 } [ %46, %45 ], [ %14, %13 ]
  call void @_ZNSt7__cxx1119basic_ostringstreamIcSt11char_traitsIcESaIcEED1Ev(ptr noundef nonnull align 8 dereferenceable(112) %7) #8
  resume { ptr, i32 } %.pn
}